; ModuleID = '17/1481.c'
source_filename = "17/1481.c"
target datalayout = "e-m:e-p270:32:32-p271:32:32-p272:64:64-i64:64-f80:128-n8:16:32:64-S128"
target triple = "x86_64-pc-linux-gnu"

@show.b = internal global [101 x i32] zeroinitializer, align 16
@.str = private unnamed_addr constant [4 x i8] c"%d\0A\00", align 1

; Function Attrs: noinline nounwind uwtable
define dso_local i32 @show(i8* %0, i32 %1) #0 {
  %3 = alloca i8*, align 8
  %4 = alloca i32, align 4
  %5 = alloca i32, align 4
  %6 = alloca i32, align 4
  %7 = alloca i32, align 4
  %8 = alloca i32, align 4
  store i8* %0, i8** %3, align 8
  store i32 %1, i32* %4, align 4
  store i32 1, i32* %8, align 4
  %9 = load i8*, i8** %3, align 8
  %10 = call i32 @puts(i8* %9)
  store i32 0, i32* %5, align 4
  br label %11

11:                                               ; preds = %54, %2
  %12 = load i32, i32* %5, align 4
  %13 = load i32, i32* %4, align 4
  %14 = sub nsw i32 %13, 1
  %15 = icmp sle i32 %12, %14
  br i1 %15, label %16, label %57

16:                                               ; preds = %11
  %17 = load i8*, i8** %3, align 8
  %18 = load i32, i32* %5, align 4
  %19 = sext i32 %18 to i64
  %20 = getelementptr inbounds i8, i8* %17, i64 %19
  %21 = load i8, i8* %20, align 1
  %22 = sext i8 %21 to i32
  switch i32 %22, label %48 [
    i32 40, label %23
    i32 41, label %35
  ]

23:                                               ; preds = %16
  %24 = load i8*, i8** %3, align 8
  %25 = load i32, i32* %5, align 4
  %26 = sext i32 %25 to i64
  %27 = getelementptr inbounds i8, i8* %24, i64 %26
  store i8 32, i8* %27, align 1
  %28 = load i32, i32* %5, align 4
  %29 = add nsw i32 %28, 1
  %30 = load i32, i32* %8, align 4
  %31 = sext i32 %30 to i64
  %32 = getelementptr inbounds [101 x i32], [101 x i32]* @show.b, i64 0, i64 %31
  store i32 %29, i32* %32, align 4
  %33 = load i32, i32* %8, align 4
  %34 = add nsw i32 %33, 1
  store i32 %34, i32* %8, align 4
  br label %53

35:                                               ; preds = %16
  %36 = load i8*, i8** %3, align 8
  %37 = load i32, i32* %5, align 4
  %38 = sext i32 %37 to i64
  %39 = getelementptr inbounds i8, i8* %36, i64 %38
  store i8 32, i8* %39, align 1
  %40 = load i32, i32* %5, align 4
  %41 = add nsw i32 %40, 1
  %42 = sub nsw i32 0, %41
  %43 = load i32, i32* %8, align 4
  %44 = sext i32 %43 to i64
  %45 = getelementptr inbounds [101 x i32], [101 x i32]* @show.b, i64 0, i64 %44
  store i32 %42, i32* %45, align 4
  %46 = load i32, i32* %8, align 4
  %47 = add nsw i32 %46, 1
  store i32 %47, i32* %8, align 4
  br label %53

48:                                               ; preds = %16
  %49 = load i8*, i8** %3, align 8
  %50 = load i32, i32* %5, align 4
  %51 = sext i32 %50 to i64
  %52 = getelementptr inbounds i8, i8* %49, i64 %51
  store i8 32, i8* %52, align 1
  br label %53

53:                                               ; preds = %48, %35, %23
  br label %54

54:                                               ; preds = %53
  %55 = load i32, i32* %5, align 4
  %56 = add nsw i32 %55, 1
  store i32 %56, i32* %5, align 4
  br label %11

57:                                               ; preds = %11
  %58 = load i32, i32* %8, align 4
  %59 = add nsw i32 %58, -1
  store i32 %59, i32* %8, align 4
  br label %60

60:                                               ; preds = %116, %57
  store i32 0, i32* %7, align 4
  store i32 1, i32* %6, align 4
  br label %61

61:                                               ; preds = %112, %60
  %62 = load i32, i32* %6, align 4
  %63 = load i32, i32* %8, align 4
  %64 = sub nsw i32 %63, 1
  %65 = icmp sle i32 %62, %64
  br i1 %65, label %66, label %115

66:                                               ; preds = %61
  %67 = load i32, i32* %6, align 4
  %68 = sext i32 %67 to i64
  %69 = getelementptr inbounds [101 x i32], [101 x i32]* @show.b, i64 0, i64 %68
  %70 = load i32, i32* %69, align 4
  %71 = icmp sgt i32 %70, 0
  br i1 %71, label %72, label %111

72:                                               ; preds = %66
  %73 = load i32, i32* %6, align 4
  %74 = add nsw i32 %73, 1
  store i32 %74, i32* %5, align 4
  br label %75

75:                                               ; preds = %87, %72
  %76 = load i32, i32* %5, align 4
  %77 = load i32, i32* %8, align 4
  %78 = icmp sle i32 %76, %77
  br i1 %78, label %79, label %90

79:                                               ; preds = %75
  %80 = load i32, i32* %5, align 4
  %81 = sext i32 %80 to i64
  %82 = getelementptr inbounds [101 x i32], [101 x i32]* @show.b, i64 0, i64 %81
  %83 = load i32, i32* %82, align 4
  %84 = icmp ne i32 %83, 0
  br i1 %84, label %85, label %86

85:                                               ; preds = %79
  br label %90

86:                                               ; preds = %79
  br label %87

87:                                               ; preds = %86
  %88 = load i32, i32* %5, align 4
  %89 = add nsw i32 %88, 1
  store i32 %89, i32* %5, align 4
  br label %75

90:                                               ; preds = %85, %75
  %91 = load i32, i32* %6, align 4
  %92 = sext i32 %91 to i64
  %93 = getelementptr inbounds [101 x i32], [101 x i32]* @show.b, i64 0, i64 %92
  %94 = load i32, i32* %93, align 4
  %95 = load i32, i32* %5, align 4
  %96 = sext i32 %95 to i64
  %97 = getelementptr inbounds [101 x i32], [101 x i32]* @show.b, i64 0, i64 %96
  %98 = load i32, i32* %97, align 4
  %99 = mul nsw i32 %94, %98
  %100 = icmp slt i32 %99, 0
  br i1 %100, label %101, label %110

101:                                              ; preds = %90
  %102 = load i32, i32* %6, align 4
  %103 = sext i32 %102 to i64
  %104 = getelementptr inbounds [101 x i32], [101 x i32]* @show.b, i64 0, i64 %103
  store i32 0, i32* %104, align 4
  %105 = load i32, i32* %5, align 4
  %106 = sext i32 %105 to i64
  %107 = getelementptr inbounds [101 x i32], [101 x i32]* @show.b, i64 0, i64 %106
  store i32 0, i32* %107, align 4
  %108 = load i32, i32* %7, align 4
  %109 = add nsw i32 %108, 1
  store i32 %109, i32* %7, align 4
  br label %110

110:                                              ; preds = %101, %90
  br label %111

111:                                              ; preds = %110, %66
  br label %112

112:                                              ; preds = %111
  %113 = load i32, i32* %6, align 4
  %114 = add nsw i32 %113, 1
  store i32 %114, i32* %6, align 4
  br label %61

115:                                              ; preds = %61
  br label %116

116:                                              ; preds = %115
  %117 = load i32, i32* %7, align 4
  %118 = icmp sgt i32 %117, 0
  br i1 %118, label %60, label %119

119:                                              ; preds = %116
  store i32 1, i32* %5, align 4
  br label %120

120:                                              ; preds = %157, %119
  %121 = load i32, i32* %5, align 4
  %122 = load i32, i32* %8, align 4
  %123 = icmp sle i32 %121, %122
  br i1 %123, label %124, label %160

124:                                              ; preds = %120
  %125 = load i32, i32* %5, align 4
  %126 = sext i32 %125 to i64
  %127 = getelementptr inbounds [101 x i32], [101 x i32]* @show.b, i64 0, i64 %126
  %128 = load i32, i32* %127, align 4
  %129 = icmp slt i32 %128, 0
  br i1 %129, label %130, label %140

130:                                              ; preds = %124
  %131 = load i8*, i8** %3, align 8
  %132 = load i32, i32* %5, align 4
  %133 = sext i32 %132 to i64
  %134 = getelementptr inbounds [101 x i32], [101 x i32]* @show.b, i64 0, i64 %133
  %135 = load i32, i32* %134, align 4
  %136 = sub nsw i32 0, %135
  %137 = sub nsw i32 %136, 1
  %138 = sext i32 %137 to i64
  %139 = getelementptr inbounds i8, i8* %131, i64 %138
  store i8 63, i8* %139, align 1
  br label %156

140:                                              ; preds = %124
  %141 = load i32, i32* %5, align 4
  %142 = sext i32 %141 to i64
  %143 = getelementptr inbounds [101 x i32], [101 x i32]* @show.b, i64 0, i64 %142
  %144 = load i32, i32* %143, align 4
  %145 = icmp sgt i32 %144, 0
  br i1 %145, label %146, label %155

146:                                              ; preds = %140
  %147 = load i8*, i8** %3, align 8
  %148 = load i32, i32* %5, align 4
  %149 = sext i32 %148 to i64
  %150 = getelementptr inbounds [101 x i32], [101 x i32]* @show.b, i64 0, i64 %149
  %151 = load i32, i32* %150, align 4
  %152 = sub nsw i32 %151, 1
  %153 = sext i32 %152 to i64
  %154 = getelementptr inbounds i8, i8* %147, i64 %153
  store i8 36, i8* %154, align 1
  br label %155

155:                                              ; preds = %146, %140
  br label %156

156:                                              ; preds = %155, %130
  br label %157

157:                                              ; preds = %156
  %158 = load i32, i32* %5, align 4
  %159 = add nsw i32 %158, 1
  store i32 %159, i32* %5, align 4
  br label %120

160:                                              ; preds = %120
  %161 = load i8*, i8** %3, align 8
  %162 = call i32 @puts(i8* %161)
  ret i32 0
}

declare dso_local i32 @puts(i8*) #1

; Function Attrs: noinline nounwind uwtable
define dso_local i32 @main() #0 {
  %1 = alloca i32, align 4
  %2 = alloca i32, align 4
  %3 = alloca i32, align 4
  %4 = alloca [101 x i8], align 16
  %5 = alloca i32, align 4
  store i32 0, i32* %1, align 4
  %6 = call i32 (i8*, ...) @__isoc99_scanf(i8* getelementptr inbounds ([4 x i8], [4 x i8]* @.str, i64 0, i64 0), i32* %3)
  store i32 1, i32* %2, align 4
  br label %7

7:                                                ; preds = %28, %0
  %8 = load i32, i32* %2, align 4
  %9 = load i32, i32* %3, align 4
  %10 = icmp sle i32 %8, %9
  br i1 %10, label %11, label %31

11:                                               ; preds = %7
  %12 = getelementptr inbounds [101 x i8], [101 x i8]* %4, i64 0, i64 0
  store i8 10, i8* %12, align 16
  %13 = getelementptr inbounds [101 x i8], [101 x i8]* %4, i64 0, i64 0
  %14 = call i32 (i8*, ...) bitcast (i32 (...)* @gets to i32 (i8*, ...)*)(i8* %13)
  %15 = getelementptr inbounds [101 x i8], [101 x i8]* %4, i64 0, i64 0
  %16 = load i8, i8* %15, align 16
  %17 = sext i8 %16 to i32
  %18 = icmp ne i32 %17, 10
  br i1 %18, label %19, label %26

19:                                               ; preds = %11
  %20 = getelementptr inbounds [101 x i8], [101 x i8]* %4, i64 0, i64 0
  %21 = call i64 @strlen(i8* %20) #3
  %22 = trunc i64 %21 to i32
  store i32 %22, i32* %5, align 4
  %23 = getelementptr inbounds [101 x i8], [101 x i8]* %4, i64 0, i64 0
  %24 = load i32, i32* %5, align 4
  %25 = call i32 @show(i8* %23, i32 %24)
  br label %27

26:                                               ; preds = %11
  br label %31

27:                                               ; preds = %19
  br label %28

28:                                               ; preds = %27
  %29 = load i32, i32* %2, align 4
  %30 = add nsw i32 %29, 1
  store i32 %30, i32* %2, align 4
  br label %7

31:                                               ; preds = %26, %7
  ret i32 0
}

declare dso_local i32 @__isoc99_scanf(i8*, ...) #1

declare dso_local i32 @gets(...) #1

; Function Attrs: nounwind readonly
declare dso_local i64 @strlen(i8*) #2


!llvm.module.flags = !{!0}
!llvm.ident = !{!1}

!0 = !{i32 1, !"wchar_size", i32 4}
!1 = !{!"clang version 10.0.0-4ubuntu1 "}
